; Function Attrs: mustprogress uwtable
define i32 @ucol_getContractions_77(ptr noundef %0, ptr noundef %1, ptr noundef %2) local_unnamed_addr #1 {
  %4 = load i32, ptr %2, align 4, !tbaa !13
  %5 = icmp slt i32 %4, 1
  br i1 %5, label %6, label %ucol_getContractionsAndExpansions_77.exit

6:                                                ; preds = %3
  %7 = icmp eq ptr %0, null
  br i1 %7, label %8, label %9

8:                                                ; preds = %6
  store i32 1, ptr %2, align 4, !tbaa !13
  br label %ucol_getContractionsAndExpansions_77.exit

9:                                                ; preds = %6
  %10 = load ptr, ptr %0, align 8, !tbaa !38
  %11 = icmp eq ptr %10, getelementptr inbounds nuw inrange(-16, 328) (i8, ptr @_ZTVN6icu_7717RuleBasedCollatorE, i64 16)
  br i1 %11, label %_ZN6icu_7717RuleBasedCollator16rbcFromUCollatorEPK9UCollator.exit.i, label %12

12:                                               ; preds = %9
  store i32 16, ptr %2, align 4, !tbaa !13
  br label %ucol_getContractionsAndExpansions_77.exit

_ZN6icu_7717RuleBasedCollator16rbcFromUCollatorEPK9UCollator.exit.i: ; preds = %9
  tail call void @_ZNK6icu_7717RuleBasedCollator36internalGetContractionsAndExpansionsEPNS_10UnicodeSetES2_aR10UErrorCode(ptr noundef nonnull align 8 dereferenceable(272) %0, ptr noundef %1, ptr noundef null, i8 noundef signext 0, ptr noundef nonnull align 4 dereferenceable(4) %2)
  br label %ucol_getContractionsAndExpansions_77.exit

ucol_getContractionsAndExpansions_77.exit:        ; preds = %3, %8, %12, %_ZN6icu_7717RuleBasedCollator16rbcFromUCollatorEPK9UCollator.exit.i
  %13 = tail call i32 @uset_getItemCount_77(ptr noundef %1)
  ret i32 %13
}